target datalayout = "e-m:e-p270:32:32-p271:32:32-p272:64:64-i64:64-i128:128-f80:128-n8:16:32:64-S128"
target triple = "x86_64-unknown-linux-gnu"

%"struct.icu_75::(anonymous namespace)::CEIBuffer" = type { [96 x %struct.CEI], ptr, i32, i32, i32, ptr, ptr }
%struct.CEI = type { i64, i32, i32 }

; Function Attrs: mustprogress nounwind uwtable
define internal void @_ZN6icu_7512_GLOBAL__N_19CEIBufferD2Ev(ptr noundef nonnull align 8 dereferenceable(1576) %this) unnamed_addr #1 align 2 personality ptr @__gxx_personality_v0 {
entry:
  %this.addr = alloca ptr, align 8
  store ptr %this, ptr %this.addr, align 8
  %this1 = load ptr, ptr %this.addr, align 8
  %buf = getelementptr inbounds %"struct.icu_75::(anonymous namespace)::CEIBuffer", ptr %this1, i32 0, i32 1
  %0 = load ptr, ptr %buf, align 8
  %defBuf = getelementptr inbounds %"struct.icu_75::(anonymous namespace)::CEIBuffer", ptr %this1, i32 0, i32 0
  %arraydecay = getelementptr inbounds [96 x %struct.CEI], ptr %defBuf, i64 0, i64 0
  %cmp = icmp ne ptr %0, %arraydecay
  br i1 %cmp, label %if.then, label %if.end

if.then:                                          ; preds = %entry
  %buf2 = getelementptr inbounds %"struct.icu_75::(anonymous namespace)::CEIBuffer", ptr %this1, i32 0, i32 1
  %1 = load ptr, ptr %buf2, align 8
  invoke void @uprv_free_75(ptr noundef %1)
          to label %invoke.cont unwind label %terminate.lpad

invoke.cont:                                      ; preds = %if.then
  br label %if.end

if.end:                                           ; preds = %invoke.cont, %entry
  ret void

terminate.lpad:                                   ; preds = %if.then
  %2 = landingpad { ptr, i32 }
          catch ptr null
  %3 = extractvalue { ptr, i32 } %2, 0
  call void @__clang_call_terminate(ptr %3) #9
  unreachable
}