; Function Attrs: mustprogress nounwind uwtable
define internal fastcc void @_ZN6icu_7512_GLOBAL__N_19CEIBufferD2Ev(ptr noundef nonnull readonly align 8 dereferenceable(1576) %this) unnamed_addr #10 align 2 personality ptr @__gxx_personality_v0 {
entry:
  %buf = getelementptr inbounds i8, ptr %this, i64 1536
  %0 = load ptr, ptr %buf, align 8
  %cmp.not = icmp eq ptr %0, %this
  br i1 %cmp.not, label %if.end, label %if.then

if.then:                                          ; preds = %entry
  invoke void @uprv_free_75(ptr noundef %0)
          to label %if.end unwind label %terminate.lpad

if.end:                                           ; preds = %if.then, %entry
  ret void

terminate.lpad:                                   ; preds = %if.then
  %1 = landingpad { ptr, i32 }
          catch ptr null
  %2 = extractvalue { ptr, i32 } %1, 0
  tail call void @__clang_call_terminate(ptr %2) #18
  unreachable
}